target datalayout = "e-m:e-p270:32:32-p271:32:32-p272:64:64-i64:64-i128:128-f80:128-n8:16:32:64-S128"
target triple = "x86_64-pc-linux-gnu"

; Function Attrs: nounwind uwtable
define internal void @HUF_setValue(ptr noundef %0, i64 noundef %1) #0 {
  %3 = alloca ptr, align 8
  %4 = alloca i64, align 8
  %5 = alloca i64, align 8
  store ptr %0, ptr %3, align 8, !tbaa !10
  store i64 %1, ptr %4, align 8, !tbaa !8
  call void @llvm.lifetime.start.p0(i64 8, ptr %5) #8
  %6 = load ptr, ptr %3, align 8, !tbaa !10
  %7 = load i64, ptr %6, align 8, !tbaa !8
  %8 = call i64 @HUF_getNbBits(i64 noundef %7)
  store i64 %8, ptr %5, align 8, !tbaa !8
  %9 = load i64, ptr %5, align 8, !tbaa !8
  %10 = icmp ugt i64 %9, 0
  br i1 %10, label %11, label %19

11:                                               ; preds = %2
  %12 = load i64, ptr %4, align 8, !tbaa !8
  %13 = load i64, ptr %5, align 8, !tbaa !8
  %14 = sub i64 64, %13
  %15 = shl i64 %12, %14
  %16 = load ptr, ptr %3, align 8, !tbaa !10
  %17 = load i64, ptr %16, align 8, !tbaa !8
  %18 = or i64 %17, %15
  store i64 %18, ptr %16, align 8, !tbaa !8
  br label %19

19:                                               ; preds = %11, %2
  call void @llvm.lifetime.end.p0(i64 8, ptr %5) #8
  ret void
}

; Function Attrs: nounwind uwtable
define internal i64 @HUF_getNbBits(i64 noundef %0) #0 {
  %2 = alloca i64, align 8
  store i64 %0, ptr %2, align 8, !tbaa !8
  %3 = load i64, ptr %2, align 8, !tbaa !8
  %4 = and i64 %3, 255
  ret i64 %4
}

; Function Attrs: nounwind uwtable
define internal void @HUF_setNbBits(ptr noundef %0, i64 noundef %1) #0 {
  %3 = alloca ptr, align 8
  %4 = alloca i64, align 8
  store ptr %0, ptr %3, align 8, !tbaa !10
  store i64 %1, ptr %4, align 8, !tbaa !8
  %5 = load i64, ptr %4, align 8, !tbaa !8
  %6 = load ptr, ptr %3, align 8, !tbaa !10
  store i64 %5, ptr %6, align 8, !tbaa !8
  ret void
}

; Function Attrs: nounwind uwtable
define internal i32 @ERR_isError(i64 noundef %0) #0 {
  %2 = alloca i64, align 8
  store i64 %0, ptr %2, align 8, !tbaa !8
  %3 = load i64, ptr %2, align 8, !tbaa !8
  %4 = icmp ugt i64 %3, -120
  %5 = zext i1 %4 to i32
  ret i32 %5
}

; Function Attrs: nounwind uwtable
define dso_local i64 @HUF_readCTable(ptr noundef %0, ptr noundef %1, ptr noundef %2, i64 noundef %3, ptr noundef %4) #0 {
  %6 = alloca i64, align 8
  %7 = alloca ptr, align 8
  %8 = alloca ptr, align 8
  %9 = alloca ptr, align 8
  %10 = alloca i64, align 8
  %11 = alloca ptr, align 8
  %12 = alloca [256 x i8], align 16
  %13 = alloca [13 x i32], align 16
  %14 = alloca i32, align 4
  %15 = alloca i32, align 4
  %16 = alloca ptr, align 8
  %17 = alloca i64, align 8
  %18 = alloca i32, align 4
  %19 = alloca i32, align 4
  %20 = alloca i32, align 4
  %21 = alloca i32, align 4
  %22 = alloca i32, align 4
  %23 = alloca i32, align 4
  %24 = alloca [14 x i16], align 16
  %25 = alloca [14 x i16], align 16
  %26 = alloca i32, align 4
  %27 = alloca i16, align 2
  %28 = alloca i32, align 4
  %29 = alloca i32, align 4
  store ptr %0, ptr %7, align 8, !tbaa !10
  store ptr %1, ptr %8, align 8, !tbaa !21
  store ptr %2, ptr %9, align 8, !tbaa !4
  store i64 %3, ptr %10, align 8, !tbaa !8
  store ptr %4, ptr %11, align 8, !tbaa !21
  call void @llvm.lifetime.start.p0(i64 256, ptr %12) #8
  call void @llvm.lifetime.start.p0(i64 52, ptr %13) #8
  call void @llvm.lifetime.start.p0(i64 4, ptr %14) #8
  store i32 0, ptr %14, align 4, !tbaa !12
  call void @llvm.lifetime.start.p0(i64 4, ptr %15) #8
  store i32 0, ptr %15, align 4, !tbaa !12
  call void @llvm.lifetime.start.p0(i64 8, ptr %16) #8
  %30 = load ptr, ptr %7, align 8, !tbaa !10
  %31 = getelementptr inbounds i64, ptr %30, i64 1
  store ptr %31, ptr %16, align 8, !tbaa !10
  call void @llvm.lifetime.start.p0(i64 8, ptr %17) #8
  %32 = getelementptr inbounds [256 x i8], ptr %12, i64 0, i64 0
  %33 = getelementptr inbounds [13 x i32], ptr %13, i64 0, i64 0
  %34 = load ptr, ptr %9, align 8, !tbaa !4
  %35 = load i64, ptr %10, align 8, !tbaa !8
  %36 = call i64 @HUF_readStats(ptr noundef %32, i64 noundef 256, ptr noundef %33, ptr noundef %15, ptr noundef %14, ptr noundef %34, i64 noundef %35)
  store i64 %36, ptr %17, align 8, !tbaa !8
  %37 = load i64, ptr %17, align 8, !tbaa !8
  %38 = call i32 @ERR_isError(i64 noundef %37)
  %39 = icmp ne i32 %38, 0
  br i1 %39, label %40, label %42

40:                                               ; preds = %5
  %41 = load i64, ptr %17, align 8, !tbaa !8
  store i64 %41, ptr %6, align 8
  store i32 1, ptr %18, align 4
  br label %191

42:                                               ; preds = %5
  %43 = getelementptr inbounds [13 x i32], ptr %13, i64 0, i64 0
  %44 = load i32, ptr %43, align 16, !tbaa !12
  %45 = icmp ugt i32 %44, 0
  %46 = zext i1 %45 to i32
  %47 = load ptr, ptr %11, align 8, !tbaa !21
  store i32 %46, ptr %47, align 4, !tbaa !12
  %48 = load i32, ptr %14, align 4, !tbaa !12
  %49 = icmp ugt i32 %48, 12
  br i1 %49, label %50, label %51

50:                                               ; preds = %42
  store i64 -44, ptr %6, align 8
  store i32 1, ptr %18, align 4
  br label %191

51:                                               ; preds = %42
  %52 = load i32, ptr %15, align 4, !tbaa !12
  %53 = load ptr, ptr %8, align 8, !tbaa !21
  %54 = load i32, ptr %53, align 4, !tbaa !12
  %55 = add i32 %54, 1
  %56 = icmp ugt i32 %52, %55
  br i1 %56, label %57, label %58

57:                                               ; preds = %51
  store i64 -48, ptr %6, align 8
  store i32 1, ptr %18, align 4
  br label %191

58:                                               ; preds = %51
  %59 = load i32, ptr %14, align 4, !tbaa !12
  %60 = zext i32 %59 to i64
  %61 = load ptr, ptr %7, align 8, !tbaa !10
  %62 = getelementptr inbounds i64, ptr %61, i64 0
  store i64 %60, ptr %62, align 8, !tbaa !8
  call void @llvm.lifetime.start.p0(i64 4, ptr %19) #8
  call void @llvm.lifetime.start.p0(i64 4, ptr %20) #8
  store i32 0, ptr %20, align 4, !tbaa !12
  store i32 1, ptr %19, align 4, !tbaa !12
  br label %63

63:                                               ; preds = %82, %58
  %64 = load i32, ptr %19, align 4, !tbaa !12
  %65 = load i32, ptr %14, align 4, !tbaa !12
  %66 = icmp ule i32 %64, %65
  br i1 %66, label %67, label %85

67:                                               ; preds = %63
  call void @llvm.lifetime.start.p0(i64 4, ptr %21) #8
  %68 = load i32, ptr %20, align 4, !tbaa !12
  store i32 %68, ptr %21, align 4, !tbaa !12
  %69 = load i32, ptr %19, align 4, !tbaa !12
  %70 = zext i32 %69 to i64
  %71 = getelementptr inbounds nuw [13 x i32], ptr %13, i64 0, i64 %70
  %72 = load i32, ptr %71, align 4, !tbaa !12
  %73 = load i32, ptr %19, align 4, !tbaa !12
  %74 = sub i32 %73, 1
  %75 = shl i32 %72, %74
  %76 = load i32, ptr %20, align 4, !tbaa !12
  %77 = add i32 %76, %75
  store i32 %77, ptr %20, align 4, !tbaa !12
  %78 = load i32, ptr %21, align 4, !tbaa !12
  %79 = load i32, ptr %19, align 4, !tbaa !12
  %80 = zext i32 %79 to i64
  %81 = getelementptr inbounds nuw [13 x i32], ptr %13, i64 0, i64 %80
  store i32 %78, ptr %81, align 4, !tbaa !12
  call void @llvm.lifetime.end.p0(i64 4, ptr %21) #8
  br label %82

82:                                               ; preds = %67
  %83 = load i32, ptr %19, align 4, !tbaa !12
  %84 = add i32 %83, 1
  store i32 %84, ptr %19, align 4, !tbaa !12
  br label %63, !llvm.loop !23

85:                                               ; preds = %63
  call void @llvm.lifetime.end.p0(i64 4, ptr %20) #8
  call void @llvm.lifetime.end.p0(i64 4, ptr %19) #8
  call void @llvm.lifetime.start.p0(i64 4, ptr %22) #8
  store i32 0, ptr %22, align 4, !tbaa !12
  br label %86

86:                                               ; preds = %112, %85
  %87 = load i32, ptr %22, align 4, !tbaa !12
  %88 = load i32, ptr %15, align 4, !tbaa !12
  %89 = icmp ult i32 %87, %88
  br i1 %89, label %90, label %115

90:                                               ; preds = %86
  call void @llvm.lifetime.start.p0(i64 4, ptr %23) #8
  %91 = load i32, ptr %22, align 4, !tbaa !12
  %92 = zext i32 %91 to i64
  %93 = getelementptr inbounds nuw [256 x i8], ptr %12, i64 0, i64 %92
  %94 = load i8, ptr %93, align 1, !tbaa !16
  %95 = zext i8 %94 to i32
  store i32 %95, ptr %23, align 4, !tbaa !12
  %96 = load ptr, ptr %16, align 8, !tbaa !10
  %97 = load i32, ptr %22, align 4, !tbaa !12
  %98 = zext i32 %97 to i64
  %99 = getelementptr inbounds nuw i64, ptr %96, i64 %98
  %100 = load i32, ptr %14, align 4, !tbaa !12
  %101 = add i32 %100, 1
  %102 = load i32, ptr %23, align 4, !tbaa !12
  %103 = sub i32 %101, %102
  %104 = trunc i32 %103 to i8
  %105 = zext i8 %104 to i32
  %106 = load i32, ptr %23, align 4, !tbaa !12
  %107 = icmp ne i32 %106, 0
  %108 = zext i1 %107 to i32
  %109 = sub nsw i32 0, %108
  %110 = and i32 %105, %109
  %111 = sext i32 %110 to i64
  call void @HUF_setNbBits(ptr noundef %99, i64 noundef %111)
  call void @llvm.lifetime.end.p0(i64 4, ptr %23) #8
  br label %112

112:                                              ; preds = %90
  %113 = load i32, ptr %22, align 4, !tbaa !12
  %114 = add i32 %113, 1
  store i32 %114, ptr %22, align 4, !tbaa !12
  br label %86, !llvm.loop !24

115:                                              ; preds = %86
  call void @llvm.lifetime.end.p0(i64 4, ptr %22) #8
  call void @llvm.lifetime.start.p0(i64 28, ptr %24) #8
  call void @llvm.memset.p0.i64(ptr align 16 %24, i8 0, i64 28, i1 false)
  call void @llvm.lifetime.start.p0(i64 28, ptr %25) #8
  call void @llvm.memset.p0.i64(ptr align 16 %25, i8 0, i64 28, i1 false)
  call void @llvm.lifetime.start.p0(i64 4, ptr %26) #8
  store i32 0, ptr %26, align 4, !tbaa !12
  br label %116

116:                                              ; preds = %130, %115
  %117 = load i32, ptr %26, align 4, !tbaa !12
  %118 = load i32, ptr %15, align 4, !tbaa !12
  %119 = icmp ult i32 %117, %118
  br i1 %119, label %120, label %133

120:                                              ; preds = %116
  %121 = load ptr, ptr %16, align 8, !tbaa !10
  %122 = load i32, ptr %26, align 4, !tbaa !12
  %123 = zext i32 %122 to i64
  %124 = getelementptr inbounds nuw i64, ptr %121, i64 %123
  %125 = load i64, ptr %124, align 8, !tbaa !8
  %126 = call i64 @HUF_getNbBits(i64 noundef %125)
  %127 = getelementptr inbounds nuw [14 x i16], ptr %24, i64 0, i64 %126
  %128 = load i16, ptr %127, align 2, !tbaa !25
  %129 = add i16 %128, 1
  store i16 %129, ptr %127, align 2, !tbaa !25
  br label %130

130:                                              ; preds = %120
  %131 = load i32, ptr %26, align 4, !tbaa !12
  %132 = add i32 %131, 1
  store i32 %132, ptr %26, align 4, !tbaa !12
  br label %116, !llvm.loop !27

133:                                              ; preds = %116
  call void @llvm.lifetime.end.p0(i64 4, ptr %26) #8
  %134 = load i32, ptr %14, align 4, !tbaa !12
  %135 = add i32 %134, 1
  %136 = zext i32 %135 to i64
  %137 = getelementptr inbounds nuw [14 x i16], ptr %25, i64 0, i64 %136
  store i16 0, ptr %137, align 2, !tbaa !25
  call void @llvm.lifetime.start.p0(i64 2, ptr %27) #8
  store i16 0, ptr %27, align 2, !tbaa !25
  call void @llvm.lifetime.start.p0(i64 4, ptr %28) #8
  %138 = load i32, ptr %14, align 4, !tbaa !12
  store i32 %138, ptr %28, align 4, !tbaa !12
  br label %139

139:                                              ; preds = %160, %133
  %140 = load i32, ptr %28, align 4, !tbaa !12
  %141 = icmp ugt i32 %140, 0
  br i1 %141, label %142, label %163

142:                                              ; preds = %139
  %143 = load i16, ptr %27, align 2, !tbaa !25
  %144 = load i32, ptr %28, align 4, !tbaa !12
  %145 = zext i32 %144 to i64
  %146 = getelementptr inbounds nuw [14 x i16], ptr %25, i64 0, i64 %145
  store i16 %143, ptr %146, align 2, !tbaa !25
  %147 = load i32, ptr %28, align 4, !tbaa !12
  %148 = zext i32 %147 to i64
  %149 = getelementptr inbounds nuw [14 x i16], ptr %24, i64 0, i64 %148
  %150 = load i16, ptr %149, align 2, !tbaa !25
  %151 = zext i16 %150 to i32
  %152 = load i16, ptr %27, align 2, !tbaa !25
  %153 = zext i16 %152 to i32
  %154 = add nsw i32 %153, %151
  %155 = trunc i32 %154 to i16
  store i16 %155, ptr %27, align 2, !tbaa !25
  %156 = load i16, ptr %27, align 2, !tbaa !25
  %157 = zext i16 %156 to i32
  %158 = ashr i32 %157, 1
  %159 = trunc i32 %158 to i16
  store i16 %159, ptr %27, align 2, !tbaa !25
  br label %160

160:                                              ; preds = %142
  %161 = load i32, ptr %28, align 4, !tbaa !12
  %162 = add i32 %161, -1
  store i32 %162, ptr %28, align 4, !tbaa !12
  br label %139, !llvm.loop !28

163:                                              ; preds = %139
  call void @llvm.lifetime.end.p0(i64 4, ptr %28) #8
  call void @llvm.lifetime.end.p0(i64 2, ptr %27) #8
  call void @llvm.lifetime.start.p0(i64 4, ptr %29) #8
  store i32 0, ptr %29, align 4, !tbaa !12
  br label %164

164:                                              ; preds = %183, %163
  %165 = load i32, ptr %29, align 4, !tbaa !12
  %166 = load i32, ptr %15, align 4, !tbaa !12
  %167 = icmp ult i32 %165, %166
  br i1 %167, label %168, label %186

168:                                              ; preds = %164
  %169 = load ptr, ptr %16, align 8, !tbaa !10
  %170 = load i32, ptr %29, align 4, !tbaa !12
  %171 = zext i32 %170 to i64
  %172 = getelementptr inbounds nuw i64, ptr %169, i64 %171
  %173 = load ptr, ptr %16, align 8, !tbaa !10
  %174 = load i32, ptr %29, align 4, !tbaa !12
  %175 = zext i32 %174 to i64
  %176 = getelementptr inbounds nuw i64, ptr %173, i64 %175
  %177 = load i64, ptr %176, align 8, !tbaa !8
  %178 = call i64 @HUF_getNbBits(i64 noundef %177)
  %179 = getelementptr inbounds nuw [14 x i16], ptr %25, i64 0, i64 %178
  %180 = load i16, ptr %179, align 2, !tbaa !25
  %181 = add i16 %180, 1
  store i16 %181, ptr %179, align 2, !tbaa !25
  %182 = zext i16 %180 to i64
  call void @HUF_setValue(ptr noundef %172, i64 noundef %182)
  br label %183

183:                                              ; preds = %168
  %184 = load i32, ptr %29, align 4, !tbaa !12
  %185 = add i32 %184, 1
  store i32 %185, ptr %29, align 4, !tbaa !12
  br label %164, !llvm.loop !29

186:                                              ; preds = %164
  call void @llvm.lifetime.end.p0(i64 4, ptr %29) #8
  call void @llvm.lifetime.end.p0(i64 28, ptr %25) #8
  call void @llvm.lifetime.end.p0(i64 28, ptr %24) #8
  %187 = load i32, ptr %15, align 4, !tbaa !12
  %188 = sub i32 %187, 1
  %189 = load ptr, ptr %8, align 8, !tbaa !21
  store i32 %188, ptr %189, align 4, !tbaa !12
  %190 = load i64, ptr %17, align 8, !tbaa !8
  store i64 %190, ptr %6, align 8
  store i32 1, ptr %18, align 4
  br label %191

191:                                              ; preds = %186, %57, %50, %40
  call void @llvm.lifetime.end.p0(i64 8, ptr %17) #8
  call void @llvm.lifetime.end.p0(i64 8, ptr %16) #8
  call void @llvm.lifetime.end.p0(i64 4, ptr %15) #8
  call void @llvm.lifetime.end.p0(i64 4, ptr %14) #8
  call void @llvm.lifetime.end.p0(i64 52, ptr %13) #8
  call void @llvm.lifetime.end.p0(i64 256, ptr %12) #8
  %192 = load i64, ptr %6, align 8
  ret i64 %192
}