; Function Attrs: nounwind uwtable
define dso_local i64 @HUF_readCTable(ptr noundef captures(none) %0, ptr noundef captures(none) %1, ptr noundef %2, i64 noundef %3, ptr noundef writeonly captures(none) %4) local_unnamed_addr #0 {
  %6 = alloca [256 x i8], align 16
  %7 = alloca [13 x i32], align 16
  %8 = alloca i32, align 4
  %9 = alloca i32, align 4
  %10 = alloca [14 x i16], align 16
  %11 = alloca [14 x i16], align 16
  call void @llvm.lifetime.start.p0(i64 256, ptr nonnull %6) #13
  call void @llvm.lifetime.start.p0(i64 52, ptr nonnull %7) #13
  call void @llvm.lifetime.start.p0(i64 4, ptr nonnull %8) #13
  store i32 0, ptr %8, align 4, !tbaa !12
  call void @llvm.lifetime.start.p0(i64 4, ptr nonnull %9) #13
  store i32 0, ptr %9, align 4, !tbaa !12
  %12 = getelementptr inbounds nuw i8, ptr %0, i64 8
  %13 = call i64 @HUF_readStats(ptr noundef nonnull %6, i64 noundef 256, ptr noundef nonnull %7, ptr noundef nonnull %9, ptr noundef nonnull %8, ptr noundef %2, i64 noundef %3) #13
  %14 = icmp ult i64 %13, -119
  br i1 %14, label %15, label %70

15:                                               ; preds = %5
  %16 = load i32, ptr %7, align 16, !tbaa !12
  %17 = icmp ne i32 %16, 0
  %18 = zext i1 %17 to i32
  store i32 %18, ptr %4, align 4, !tbaa !12
  %19 = load i32, ptr %8, align 4, !tbaa !12
  %20 = icmp ugt i32 %19, 12
  br i1 %20, label %70, label %21

21:                                               ; preds = %15
  %22 = load i32, ptr %9, align 4, !tbaa !12
  %23 = load i32, ptr %1, align 4, !tbaa !12
  %24 = add i32 %23, 1
  %25 = icmp ugt i32 %22, %24
  br i1 %25, label %70, label %26

26:                                               ; preds = %21
  %27 = zext nneg i32 %19 to i64
  store i64 %27, ptr %0, align 8, !tbaa !9
  %.not5054 = icmp eq i32 %19, 0
  br i1 %.not5054, label %.preheader53, label %.lr.ph.preheader

.lr.ph.preheader:                                 ; preds = %26
  %28 = add nuw nsw i32 %19, 1
  %wide.trip.count = zext nneg i32 %28 to i64
  br label %.lr.ph

.preheader53:                                     ; preds = %.lr.ph, %26
  %.not = icmp eq i32 %22, 0
  br i1 %.not, label %._crit_edge.thread, label %.lr.ph58

._crit_edge.thread:                               ; preds = %.preheader53
  call void @llvm.lifetime.start.p0(i64 28, ptr nonnull %10) #13
  call void @llvm.memset.p0.i64(ptr noundef nonnull align 16 dereferenceable(28) %10, i8 0, i64 28, i1 false)
  call void @llvm.lifetime.start.p0(i64 28, ptr nonnull %11) #13
  call void @llvm.memset.p0.i64(ptr noundef nonnull align 16 dereferenceable(28) %11, i8 0, i64 28, i1 false)
  br label %._crit_edge62

.lr.ph58:                                         ; preds = %.preheader53
  %29 = trunc nuw i32 %19 to i8
  %30 = add nuw nsw i8 %29, 1
  %wide.trip.count77 = zext i32 %22 to i64
  br label %37

.lr.ph:                                           ; preds = %.lr.ph.preheader, %.lr.ph
  %indvars.iv = phi i64 [ 1, %.lr.ph.preheader ], [ %indvars.iv.next, %.lr.ph ]
  %.04756 = phi i32 [ 0, %.lr.ph.preheader ], [ %36, %.lr.ph ]
  %31 = getelementptr inbounds nuw [13 x i32], ptr %7, i64 0, i64 %indvars.iv
  %32 = load i32, ptr %31, align 4, !tbaa !12
  %33 = trunc i64 %indvars.iv to i32
  %34 = add i32 %33, -1
  %35 = shl i32 %32, %34
  %36 = add i32 %35, %.04756
  store i32 %.04756, ptr %31, align 4, !tbaa !12
  %indvars.iv.next = add nuw nsw i64 %indvars.iv, 1
  %exitcond = icmp eq i64 %indvars.iv.next, %wide.trip.count
  br i1 %exitcond, label %.preheader53, label %.lr.ph, !llvm.loop !15

37:                                               ; preds = %.lr.ph58, %37
  %indvars.iv74 = phi i64 [ 0, %.lr.ph58 ], [ %indvars.iv.next75, %37 ]
  %38 = getelementptr inbounds nuw [256 x i8], ptr %6, i64 0, i64 %indvars.iv74
  %39 = load i8, ptr %38, align 1, !tbaa !4
  %40 = getelementptr inbounds nuw i64, ptr %12, i64 %indvars.iv74
  %41 = sub i8 %30, %39
  %.not52 = icmp eq i8 %39, 0
  %narrow = select i1 %.not52, i8 0, i8 %41
  %42 = zext i8 %narrow to i64
  store i64 %42, ptr %40, align 8, !tbaa !9
  %indvars.iv.next75 = add nuw nsw i64 %indvars.iv74, 1
  %exitcond78.not = icmp eq i64 %indvars.iv.next75, %wide.trip.count77
  br i1 %exitcond78.not, label %._crit_edge, label %37, !llvm.loop !16

._crit_edge:                                      ; preds = %37
  call void @llvm.lifetime.start.p0(i64 28, ptr nonnull %10) #13
  call void @llvm.memset.p0.i64(ptr noundef nonnull align 16 dereferenceable(28) %10, i8 0, i64 28, i1 false)
  call void @llvm.lifetime.start.p0(i64 28, ptr nonnull %11) #13
  call void @llvm.memset.p0.i64(ptr noundef nonnull align 16 dereferenceable(28) %11, i8 0, i64 28, i1 false)
  %wide.trip.count82 = zext i32 %22 to i64
  br label %.lr.ph61

.lr.ph61:                                         ; preds = %._crit_edge, %.lr.ph61
  %indvars.iv79 = phi i64 [ 0, %._crit_edge ], [ %indvars.iv.next80, %.lr.ph61 ]
  %43 = getelementptr inbounds nuw i64, ptr %12, i64 %indvars.iv79
  %44 = load i64, ptr %43, align 8, !tbaa !9
  %45 = and i64 %44, 255
  %46 = getelementptr inbounds nuw [14 x i16], ptr %10, i64 0, i64 %45
  %47 = load i16, ptr %46, align 2, !tbaa !17
  %48 = add i16 %47, 1
  store i16 %48, ptr %46, align 2, !tbaa !17
  %indvars.iv.next80 = add nuw nsw i64 %indvars.iv79, 1
  %exitcond83.not = icmp eq i64 %indvars.iv.next80, %wide.trip.count82
  br i1 %exitcond83.not, label %._crit_edge62, label %.lr.ph61, !llvm.loop !19

._crit_edge62:                                    ; preds = %.lr.ph61, %._crit_edge.thread
  %49 = add nuw nsw i32 %19, 1
  %50 = zext nneg i32 %49 to i64
  %51 = getelementptr inbounds nuw [14 x i16], ptr %11, i64 0, i64 %50
  store i16 0, ptr %51, align 2, !tbaa !17
  br i1 %.not5054, label %.preheader, label %.lr.ph67

.preheader:                                       ; preds = %.lr.ph67, %._crit_edge62
  br i1 %.not, label %._crit_edge70, label %.lr.ph69.preheader

.lr.ph69.preheader:                               ; preds = %.preheader
  %wide.trip.count89 = zext i32 %22 to i64
  br label %.lr.ph69

.lr.ph67:                                         ; preds = %._crit_edge62, %.lr.ph67
  %indvars.iv84 = phi i64 [ %indvars.iv.next85, %.lr.ph67 ], [ %27, %._crit_edge62 ]
  %.04265 = phi i32 [ %57, %.lr.ph67 ], [ %19, %._crit_edge62 ]
  %.04364 = phi i16 [ %56, %.lr.ph67 ], [ 0, %._crit_edge62 ]
  %52 = getelementptr inbounds nuw [14 x i16], ptr %11, i64 0, i64 %indvars.iv84
  store i16 %.04364, ptr %52, align 2, !tbaa !17
  %53 = getelementptr inbounds nuw [14 x i16], ptr %10, i64 0, i64 %indvars.iv84
  %54 = load i16, ptr %53, align 2, !tbaa !17
  %55 = add i16 %54, %.04364
  %56 = lshr i16 %55, 1
  %57 = add i32 %.04265, -1
  %.not51 = icmp eq i32 %57, 0
  %indvars.iv.next85 = add nsw i64 %indvars.iv84, -1
  br i1 %.not51, label %.preheader, label %.lr.ph67, !llvm.loop !20

.lr.ph69:                                         ; preds = %.lr.ph69.preheader, %HUF_setValue.exit
  %indvars.iv86 = phi i64 [ 0, %.lr.ph69.preheader ], [ %indvars.iv.next87, %HUF_setValue.exit ]
  %58 = getelementptr inbounds nuw i64, ptr %12, i64 %indvars.iv86
  %59 = load i64, ptr %58, align 8, !tbaa !9
  %60 = and i64 %59, 255
  %61 = getelementptr inbounds nuw [14 x i16], ptr %11, i64 0, i64 %60
  %62 = load i16, ptr %61, align 2, !tbaa !17
  %63 = add i16 %62, 1
  store i16 %63, ptr %61, align 2, !tbaa !17
  %.not.i = icmp eq i64 %60, 0
  br i1 %.not.i, label %HUF_setValue.exit, label %64

64:                                               ; preds = %.lr.ph69
  %65 = zext i16 %62 to i64
  %66 = sub nsw i64 64, %60
  %67 = shl i64 %65, %66
  %68 = or i64 %67, %59
  store i64 %68, ptr %58, align 8, !tbaa !9
  br label %HUF_setValue.exit

HUF_setValue.exit:                                ; preds = %.lr.ph69, %64
  %indvars.iv.next87 = add nuw nsw i64 %indvars.iv86, 1
  %exitcond90.not = icmp eq i64 %indvars.iv.next87, %wide.trip.count89
  br i1 %exitcond90.not, label %._crit_edge70, label %.lr.ph69, !llvm.loop !21

._crit_edge70:                                    ; preds = %HUF_setValue.exit, %.preheader
  call void @llvm.lifetime.end.p0(i64 28, ptr nonnull %11) #13
  call void @llvm.lifetime.end.p0(i64 28, ptr nonnull %10) #13
  %69 = add i32 %22, -1
  store i32 %69, ptr %1, align 4, !tbaa !12
  br label %70

70:                                               ; preds = %21, %15, %5, %._crit_edge70
  %.045 = phi i64 [ %13, %._crit_edge70 ], [ %13, %5 ], [ -44, %15 ], [ -48, %21 ]
  call void @llvm.lifetime.end.p0(i64 4, ptr nonnull %9) #13
  call void @llvm.lifetime.end.p0(i64 4, ptr nonnull %8) #13
  call void @llvm.lifetime.end.p0(i64 52, ptr nonnull %7) #13
  call void @llvm.lifetime.end.p0(i64 256, ptr nonnull %6) #13
  ret i64 %.045
}